; Function Attrs: mustprogress nounwind uwtable
define void @_ZN32pxrInternal_v0_24__pxrReserved__9GfFrustum15SetOrthographicEdddddd(ptr nocapture noundef nonnull align 8 dereferenceable(128) %0, double noundef %1, double noundef %2, double noundef %3, double noundef %4, double noundef %5, double noundef %6) local_unnamed_addr #4 align 2 {
  %8 = getelementptr inbounds nuw i8, ptr %0, i64 112
  store i32 0, ptr %8, align 8
  %9 = getelementptr inbounds nuw i8, ptr %0, i64 56
  store double %1, ptr %9, align 8
  %.sroa.28.0..sroa_idx = getelementptr inbounds i8, ptr %0, i64 64
  store double %3, ptr %.sroa.28.0..sroa_idx, align 8
  %10 = getelementptr inbounds i8, ptr %0, i64 72
  store double %2, ptr %10, align 8
  %.sroa.2.0..sroa_idx = getelementptr inbounds i8, ptr %0, i64 80
  store double %4, ptr %.sroa.2.0..sroa_idx, align 8
  %11 = getelementptr inbounds nuw i8, ptr %0, i64 88
  store double %5, ptr %11, align 8
  %12 = getelementptr inbounds i8, ptr %0, i64 96
  store double %6, ptr %12, align 8
  %13 = getelementptr inbounds nuw i8, ptr %0, i64 120
  %14 = atomicrmw xchg ptr %13, i64 0 monotonic, align 8
  %15 = icmp eq i64 %14, 0
  br i1 %15, label %_ZN32pxrInternal_v0_24__pxrReserved__9GfFrustum19_DirtyFrustumPlanesEv.exit, label %16

16:                                               ; preds = %7
  %.0.i.i = inttoptr i64 %14 to ptr
  tail call void @_ZdlPvm(ptr noundef nonnull %.0.i.i, i64 noundef 192) #25
  br label %_ZN32pxrInternal_v0_24__pxrReserved__9GfFrustum19_DirtyFrustumPlanesEv.exit

_ZN32pxrInternal_v0_24__pxrReserved__9GfFrustum19_DirtyFrustumPlanesEv.exit: ; preds = %7, %16
  ret void
}